target datalayout = "e-m:e-p270:32:32-p271:32:32-p272:64:64-i64:64-i128:128-f80:128-n8:16:32:64-S128"
target triple = "x86_64-pc-linux-gnu"

%struct.dt_import_metadata_t = type { ptr, ptr, ptr, ptr, ptr }

; Function Attrs: nounwind uwtable
define internal ptr @_set_up_label(ptr noundef %0, i32 noundef %1, i32 noundef %2, ptr noundef %3) #0 {
  %5 = alloca ptr, align 8
  %6 = alloca i32, align 4
  %7 = alloca i32, align 4
  %8 = alloca ptr, align 8
  %9 = alloca ptr, align 8
  store ptr %0, ptr %5, align 8, !tbaa !11
  store i32 %1, ptr %6, align 4, !tbaa !61
  store i32 %2, ptr %7, align 4, !tbaa !61
  store ptr %3, ptr %8, align 8, !tbaa !6
  %10 = load ptr, ptr %5, align 8, !tbaa !11
  call void @gtk_widget_set_visible(ptr noundef %10, i32 noundef 1)
  %11 = load ptr, ptr %5, align 8, !tbaa !11
  %12 = call i64 @gtk_label_get_type() #8
  %13 = call ptr @g_type_check_instance_cast(ptr noundef %11, i64 noundef %12)
  call void @gtk_label_set_ellipsize(ptr noundef %13, i32 noundef 3)
  %14 = load ptr, ptr %5, align 8, !tbaa !11
  %15 = load i32, ptr %6, align 4, !tbaa !61
  call void @gtk_widget_set_halign(ptr noundef %14, i32 noundef %15)
  %16 = load ptr, ptr %5, align 8, !tbaa !11
  %17 = call i64 @gtk_label_get_type() #8
  %18 = call ptr @g_type_check_instance_cast(ptr noundef %16, i64 noundef %17)
  call void @gtk_label_set_xalign(ptr noundef %18, float noundef 0.000000e+00)
  call void @llvm.lifetime.start.p0(i64 8, ptr %9) #7
  %19 = call ptr @gtk_event_box_new()
  store ptr %19, ptr %9, align 8, !tbaa !11
  %20 = load ptr, ptr %9, align 8, !tbaa !11
  call void @gtk_widget_set_visible(ptr noundef %20, i32 noundef 1)
  %21 = load ptr, ptr %9, align 8, !tbaa !11
  call void @gtk_widget_add_events(ptr noundef %21, i32 noundef 256)
  %22 = load ptr, ptr %9, align 8, !tbaa !11
  %23 = call i64 @gtk_container_get_type() #8
  %24 = call ptr @g_type_check_instance_cast(ptr noundef %22, i64 noundef %23)
  %25 = load ptr, ptr %5, align 8, !tbaa !11
  call void @gtk_container_add(ptr noundef %24, ptr noundef %25)
  %26 = load ptr, ptr %8, align 8, !tbaa !6
  %27 = getelementptr inbounds nuw %struct.dt_import_metadata_t, ptr %26, i32 0, i32 2
  %28 = load ptr, ptr %27, align 8, !tbaa !13
  %29 = call i64 @gtk_grid_get_type() #8
  %30 = call ptr @g_type_check_instance_cast(ptr noundef %28, i64 noundef %29)
  %31 = load ptr, ptr %9, align 8, !tbaa !11
  %32 = load i32, ptr %7, align 4, !tbaa !61
  call void @gtk_grid_attach(ptr noundef %30, ptr noundef %31, i32 noundef 0, i32 noundef %32, i32 noundef 1, i32 noundef 1)
  %33 = load ptr, ptr %9, align 8, !tbaa !11
  call void @llvm.lifetime.end.p0(i64 8, ptr %9) #7
  ret ptr %33
}