; Function Attrs: nounwind uwtable
define internal fastcc noundef ptr @_set_up_label(ptr noundef %0, i32 noundef range(i32 0, 12) %1, ptr noundef readonly captures(none) %2) unnamed_addr #0 {
  tail call void @gtk_widget_set_visible(ptr noundef %0, i32 noundef 1) #10
  %4 = tail call i64 @gtk_label_get_type() #11
  %5 = tail call ptr @g_type_check_instance_cast(ptr noundef %0, i64 noundef %4) #10
  tail call void @gtk_label_set_ellipsize(ptr noundef %5, i32 noundef 3) #10
  tail call void @gtk_widget_set_halign(ptr noundef %0, i32 noundef 1) #10
  %6 = tail call ptr @g_type_check_instance_cast(ptr noundef %0, i64 noundef %4) #10
  tail call void @gtk_label_set_xalign(ptr noundef %6, float noundef 0.000000e+00) #10
  %7 = tail call ptr @gtk_event_box_new() #10
  tail call void @gtk_widget_set_visible(ptr noundef %7, i32 noundef 1) #10
  tail call void @gtk_widget_add_events(ptr noundef %7, i32 noundef 256) #10
  %8 = tail call i64 @gtk_container_get_type() #11
  %9 = tail call ptr @g_type_check_instance_cast(ptr noundef %7, i64 noundef %8) #10
  tail call void @gtk_container_add(ptr noundef %9, ptr noundef %0) #10
  %10 = getelementptr inbounds nuw i8, ptr %2, i64 16
  %11 = load ptr, ptr %10, align 8, !tbaa !6
  %12 = tail call i64 @gtk_grid_get_type() #11
  %13 = tail call ptr @g_type_check_instance_cast(ptr noundef %11, i64 noundef %12) #10
  tail call void @gtk_grid_attach(ptr noundef %13, ptr noundef %7, i32 noundef 0, i32 noundef %1, i32 noundef 1, i32 noundef 1) #10
  ret ptr %7
}